target datalayout = "e-m:e-p270:32:32-p271:32:32-p272:64:64-i64:64-i128:128-f80:128-n8:16:32:64-S128"
target triple = "x86_64-pc-linux-gnu"

%struct.la_zstream = type { ptr, i64, i64, ptr, i64, i64, i32, ptr, i32, ptr, ptr, ptr }

; Function Attrs: nounwind uwtable
define internal i32 @compression_code_copy(ptr noundef %0, ptr noundef %1, i32 noundef %2) #0 {
  %4 = alloca i32, align 4
  %5 = alloca ptr, align 8
  %6 = alloca ptr, align 8
  %7 = alloca i32, align 4
  %8 = alloca i64, align 8
  store ptr %0, ptr %5, align 8
  store ptr %1, ptr %6, align 8
  store i32 %2, ptr %7, align 4
  %9 = load ptr, ptr %6, align 8
  %10 = getelementptr inbounds %struct.la_zstream, ptr %9, i32 0, i32 4
  %11 = load i64, ptr %10, align 8
  %12 = load ptr, ptr %6, align 8
  %13 = getelementptr inbounds %struct.la_zstream, ptr %12, i32 0, i32 1
  %14 = load i64, ptr %13, align 8
  %15 = icmp ugt i64 %11, %14
  br i1 %15, label %16, label %20

16:                                               ; preds = %3
  %17 = load ptr, ptr %6, align 8
  %18 = getelementptr inbounds %struct.la_zstream, ptr %17, i32 0, i32 1
  %19 = load i64, ptr %18, align 8
  store i64 %19, ptr %8, align 8
  br label %24

20:                                               ; preds = %3
  %21 = load ptr, ptr %6, align 8
  %22 = getelementptr inbounds %struct.la_zstream, ptr %21, i32 0, i32 4
  %23 = load i64, ptr %22, align 8
  store i64 %23, ptr %8, align 8
  br label %24

24:                                               ; preds = %20, %16
  %25 = load i64, ptr %8, align 8
  %26 = icmp ne i64 %25, 0
  br i1 %26, label %27, label %65

27:                                               ; preds = %24
  %28 = load ptr, ptr %6, align 8
  %29 = getelementptr inbounds %struct.la_zstream, ptr %28, i32 0, i32 3
  %30 = load ptr, ptr %29, align 8
  %31 = load ptr, ptr %6, align 8
  %32 = getelementptr inbounds %struct.la_zstream, ptr %31, i32 0, i32 0
  %33 = load ptr, ptr %32, align 8
  %34 = load i64, ptr %8, align 8
  call void @llvm.memcpy.p0.p0.i64(ptr align 1 %30, ptr align 1 %33, i64 %34, i1 false)
  %35 = load i64, ptr %8, align 8
  %36 = load ptr, ptr %6, align 8
  %37 = getelementptr inbounds %struct.la_zstream, ptr %36, i32 0, i32 0
  %38 = load ptr, ptr %37, align 8
  %39 = getelementptr inbounds i8, ptr %38, i64 %35
  store ptr %39, ptr %37, align 8
  %40 = load i64, ptr %8, align 8
  %41 = load ptr, ptr %6, align 8
  %42 = getelementptr inbounds %struct.la_zstream, ptr %41, i32 0, i32 1
  %43 = load i64, ptr %42, align 8
  %44 = sub i64 %43, %40
  store i64 %44, ptr %42, align 8
  %45 = load i64, ptr %8, align 8
  %46 = load ptr, ptr %6, align 8
  %47 = getelementptr inbounds %struct.la_zstream, ptr %46, i32 0, i32 2
  %48 = load i64, ptr %47, align 8
  %49 = add i64 %48, %45
  store i64 %49, ptr %47, align 8
  %50 = load i64, ptr %8, align 8
  %51 = load ptr, ptr %6, align 8
  %52 = getelementptr inbounds %struct.la_zstream, ptr %51, i32 0, i32 3
  %53 = load ptr, ptr %52, align 8
  %54 = getelementptr inbounds i8, ptr %53, i64 %50
  store ptr %54, ptr %52, align 8
  %55 = load i64, ptr %8, align 8
  %56 = load ptr, ptr %6, align 8
  %57 = getelementptr inbounds %struct.la_zstream, ptr %56, i32 0, i32 4
  %58 = load i64, ptr %57, align 8
  %59 = sub i64 %58, %55
  store i64 %59, ptr %57, align 8
  %60 = load i64, ptr %8, align 8
  %61 = load ptr, ptr %6, align 8
  %62 = getelementptr inbounds %struct.la_zstream, ptr %61, i32 0, i32 5
  %63 = load i64, ptr %62, align 8
  %64 = add i64 %63, %60
  store i64 %64, ptr %62, align 8
  br label %65

65:                                               ; preds = %27, %24
  %66 = load i32, ptr %7, align 4
  %67 = icmp eq i32 %66, 0
  br i1 %67, label %68, label %74

68:                                               ; preds = %65
  %69 = load ptr, ptr %6, align 8
  %70 = getelementptr inbounds %struct.la_zstream, ptr %69, i32 0, i32 1
  %71 = load i64, ptr %70, align 8
  %72 = icmp eq i64 %71, 0
  br i1 %72, label %73, label %74

73:                                               ; preds = %68
  store i32 1, ptr %4, align 4
  br label %75

74:                                               ; preds = %68, %65
  store i32 0, ptr %4, align 4
  br label %75

75:                                               ; preds = %74, %73
  %76 = load i32, ptr %4, align 4
  ret i32 %76
}