; Function Attrs: mustprogress nofree norecurse nosync nounwind willreturn memory(readwrite, inaccessiblemem: none) uwtable
define internal range(i32 0, 2) i32 @compression_code_copy(ptr readnone captures(none) %0, ptr noundef captures(none) %1, i32 noundef %2) #12 {
  %4 = getelementptr inbounds nuw i8, ptr %1, i64 32
  %5 = load i64, ptr %4, align 8
  %6 = getelementptr inbounds nuw i8, ptr %1, i64 8
  %7 = load i64, ptr %6, align 8
  %. = tail call i64 @llvm.umin.i64(i64 %5, i64 %7)
  %.not = icmp eq i64 %., 0
  br i1 %.not, label %26, label %8

8:                                                ; preds = %3
  %9 = getelementptr inbounds nuw i8, ptr %1, i64 24
  %10 = load ptr, ptr %9, align 8
  %11 = load ptr, ptr %1, align 8
  tail call void @llvm.memcpy.p0.p0.i64(ptr align 1 %10, ptr align 1 %11, i64 %., i1 false)
  %12 = load ptr, ptr %1, align 8
  %13 = getelementptr inbounds i8, ptr %12, i64 %.
  store ptr %13, ptr %1, align 8
  %14 = load i64, ptr %6, align 8
  %15 = sub i64 %14, %.
  store i64 %15, ptr %6, align 8
  %16 = getelementptr inbounds nuw i8, ptr %1, i64 16
  %17 = load i64, ptr %16, align 8
  %18 = add i64 %17, %.
  store i64 %18, ptr %16, align 8
  %19 = load ptr, ptr %9, align 8
  %20 = getelementptr inbounds i8, ptr %19, i64 %.
  store ptr %20, ptr %9, align 8
  %21 = load i64, ptr %4, align 8
  %22 = sub i64 %21, %.
  store i64 %22, ptr %4, align 8
  %23 = getelementptr inbounds nuw i8, ptr %1, i64 40
  %24 = load i64, ptr %23, align 8
  %25 = add i64 %24, %.
  store i64 %25, ptr %23, align 8
  br label %26

26:                                               ; preds = %8, %3
  %27 = phi i64 [ %15, %8 ], [ %7, %3 ]
  %28 = icmp eq i32 %2, 0
  %29 = icmp eq i64 %27, 0
  %or.cond = select i1 %28, i1 %29, i1 false
  %.022 = zext i1 %or.cond to i32
  ret i32 %.022
}